; ModuleID = '24/434.c'
source_filename = "24/434.c"
target datalayout = "e-m:e-p270:32:32-p271:32:32-p272:64:64-i64:64-f80:128-n8:16:32:64-S128"
target triple = "x86_64-pc-linux-gnu"

; Function Attrs: noinline nounwind uwtable
define dso_local void @main() #0 {
  %1 = alloca [500 x i8], align 16
  %2 = alloca [50 x [20 x i8]], align 16
  %3 = alloca i32, align 4
  %4 = alloca i32, align 4
  %5 = alloca i32, align 4
  %6 = alloca i32, align 4
  %7 = alloca i32, align 4
  %8 = alloca i32, align 4
  store i32 0, i32* %5, align 4
  %9 = getelementptr inbounds [500 x i8], [500 x i8]* %1, i64 0, i64 0
  %10 = call i32 (i8*, ...) bitcast (i32 (...)* @gets to i32 (i8*, ...)*)(i8* %9)
  %11 = getelementptr inbounds [500 x i8], [500 x i8]* %1, i64 0, i64 0
  %12 = call i64 @strlen(i8* %11) #3
  %13 = trunc i64 %12 to i32
  store i32 %13, i32* %4, align 4
  store i32 0, i32* %3, align 4
  br label %14

14:                                               ; preds = %32, %0
  %15 = load i32, i32* %3, align 4
  %16 = icmp slt i32 %15, 50
  br i1 %16, label %17, label %35

17:                                               ; preds = %14
  store i32 0, i32* %6, align 4
  br label %18

18:                                               ; preds = %28, %17
  %19 = load i32, i32* %6, align 4
  %20 = icmp slt i32 %19, 20
  br i1 %20, label %21, label %31

21:                                               ; preds = %18
  %22 = load i32, i32* %3, align 4
  %23 = sext i32 %22 to i64
  %24 = getelementptr inbounds [50 x [20 x i8]], [50 x [20 x i8]]* %2, i64 0, i64 %23
  %25 = load i32, i32* %6, align 4
  %26 = sext i32 %25 to i64
  %27 = getelementptr inbounds [20 x i8], [20 x i8]* %24, i64 0, i64 %26
  store i8 0, i8* %27, align 1
  br label %28

28:                                               ; preds = %21
  %29 = load i32, i32* %6, align 4
  %30 = add nsw i32 %29, 1
  store i32 %30, i32* %6, align 4
  br label %18

31:                                               ; preds = %18
  br label %32

32:                                               ; preds = %31
  %33 = load i32, i32* %3, align 4
  %34 = add nsw i32 %33, 1
  store i32 %34, i32* %3, align 4
  br label %14

35:                                               ; preds = %14
  store i32 0, i32* %6, align 4
  store i32 0, i32* %3, align 4
  br label %36

36:                                               ; preds = %64, %35
  %37 = load i32, i32* %3, align 4
  %38 = load i32, i32* %4, align 4
  %39 = icmp slt i32 %37, %38
  br i1 %39, label %40, label %67

40:                                               ; preds = %36
  %41 = load i32, i32* %3, align 4
  %42 = sext i32 %41 to i64
  %43 = getelementptr inbounds [500 x i8], [500 x i8]* %1, i64 0, i64 %42
  %44 = load i8, i8* %43, align 1
  %45 = sext i8 %44 to i32
  %46 = icmp ne i32 %45, 32
  br i1 %46, label %47, label %60

47:                                               ; preds = %40
  %48 = load i32, i32* %3, align 4
  %49 = sext i32 %48 to i64
  %50 = getelementptr inbounds [500 x i8], [500 x i8]* %1, i64 0, i64 %49
  %51 = load i8, i8* %50, align 1
  %52 = load i32, i32* %5, align 4
  %53 = sext i32 %52 to i64
  %54 = getelementptr inbounds [50 x [20 x i8]], [50 x [20 x i8]]* %2, i64 0, i64 %53
  %55 = load i32, i32* %6, align 4
  %56 = sext i32 %55 to i64
  %57 = getelementptr inbounds [20 x i8], [20 x i8]* %54, i64 0, i64 %56
  store i8 %51, i8* %57, align 1
  %58 = load i32, i32* %6, align 4
  %59 = add nsw i32 %58, 1
  store i32 %59, i32* %6, align 4
  br label %63

60:                                               ; preds = %40
  store i32 0, i32* %6, align 4
  %61 = load i32, i32* %5, align 4
  %62 = add nsw i32 %61, 1
  store i32 %62, i32* %5, align 4
  br label %63

63:                                               ; preds = %60, %47
  br label %64

64:                                               ; preds = %63
  %65 = load i32, i32* %3, align 4
  %66 = add nsw i32 %65, 1
  store i32 %66, i32* %3, align 4
  br label %36

67:                                               ; preds = %36
  %68 = getelementptr inbounds [50 x [20 x i8]], [50 x [20 x i8]]* %2, i64 0, i64 0
  %69 = getelementptr inbounds [20 x i8], [20 x i8]* %68, i64 0, i64 0
  %70 = call i64 @strlen(i8* %69) #3
  %71 = trunc i64 %70 to i32
  store i32 %71, i32* %7, align 4
  %72 = load i32, i32* %7, align 4
  store i32 %72, i32* %8, align 4
  store i32 1, i32* %3, align 4
  br label %73

73:                                               ; preds = %111, %67
  %74 = load i32, i32* %3, align 4
  %75 = load i32, i32* %5, align 4
  %76 = icmp sle i32 %74, %75
  br i1 %76, label %77, label %114

77:                                               ; preds = %73
  %78 = load i32, i32* %7, align 4
  %79 = sext i32 %78 to i64
  %80 = load i32, i32* %3, align 4
  %81 = sext i32 %80 to i64
  %82 = getelementptr inbounds [50 x [20 x i8]], [50 x [20 x i8]]* %2, i64 0, i64 %81
  %83 = getelementptr inbounds [20 x i8], [20 x i8]* %82, i64 0, i64 0
  %84 = call i64 @strlen(i8* %83) #3
  %85 = icmp ult i64 %79, %84
  br i1 %85, label %86, label %93

86:                                               ; preds = %77
  %87 = load i32, i32* %3, align 4
  %88 = sext i32 %87 to i64
  %89 = getelementptr inbounds [50 x [20 x i8]], [50 x [20 x i8]]* %2, i64 0, i64 %88
  %90 = getelementptr inbounds [20 x i8], [20 x i8]* %89, i64 0, i64 0
  %91 = call i64 @strlen(i8* %90) #3
  %92 = trunc i64 %91 to i32
  store i32 %92, i32* %7, align 4
  br label %110

93:                                               ; preds = %77
  %94 = load i32, i32* %8, align 4
  %95 = sext i32 %94 to i64
  %96 = load i32, i32* %3, align 4
  %97 = sext i32 %96 to i64
  %98 = getelementptr inbounds [50 x [20 x i8]], [50 x [20 x i8]]* %2, i64 0, i64 %97
  %99 = getelementptr inbounds [20 x i8], [20 x i8]* %98, i64 0, i64 0
  %100 = call i64 @strlen(i8* %99) #3
  %101 = icmp ugt i64 %95, %100
  br i1 %101, label %102, label %109

102:                                              ; preds = %93
  %103 = load i32, i32* %3, align 4
  %104 = sext i32 %103 to i64
  %105 = getelementptr inbounds [50 x [20 x i8]], [50 x [20 x i8]]* %2, i64 0, i64 %104
  %106 = getelementptr inbounds [20 x i8], [20 x i8]* %105, i64 0, i64 0
  %107 = call i64 @strlen(i8* %106) #3
  %108 = trunc i64 %107 to i32
  store i32 %108, i32* %8, align 4
  br label %109

109:                                              ; preds = %102, %93
  br label %110

110:                                              ; preds = %109, %86
  br label %111

111:                                              ; preds = %110
  %112 = load i32, i32* %3, align 4
  %113 = add nsw i32 %112, 1
  store i32 %113, i32* %3, align 4
  br label %73

114:                                              ; preds = %73
  store i32 0, i32* %3, align 4
  br label %115

115:                                              ; preds = %135, %114
  %116 = load i32, i32* %3, align 4
  %117 = load i32, i32* %5, align 4
  %118 = icmp sle i32 %116, %117
  br i1 %118, label %119, label %138

119:                                              ; preds = %115
  %120 = load i32, i32* %3, align 4
  %121 = sext i32 %120 to i64
  %122 = getelementptr inbounds [50 x [20 x i8]], [50 x [20 x i8]]* %2, i64 0, i64 %121
  %123 = getelementptr inbounds [20 x i8], [20 x i8]* %122, i64 0, i64 0
  %124 = call i64 @strlen(i8* %123) #3
  %125 = load i32, i32* %7, align 4
  %126 = sext i32 %125 to i64
  %127 = icmp eq i64 %124, %126
  br i1 %127, label %128, label %134

128:                                              ; preds = %119
  %129 = load i32, i32* %3, align 4
  %130 = sext i32 %129 to i64
  %131 = getelementptr inbounds [50 x [20 x i8]], [50 x [20 x i8]]* %2, i64 0, i64 %130
  %132 = getelementptr inbounds [20 x i8], [20 x i8]* %131, i64 0, i64 0
  %133 = call i32 @puts(i8* %132)
  br label %138

134:                                              ; preds = %119
  br label %135

135:                                              ; preds = %134
  %136 = load i32, i32* %3, align 4
  %137 = add nsw i32 %136, 1
  store i32 %137, i32* %3, align 4
  br label %115

138:                                              ; preds = %128, %115
  store i32 0, i32* %3, align 4
  br label %139

139:                                              ; preds = %159, %138
  %140 = load i32, i32* %3, align 4
  %141 = load i32, i32* %5, align 4
  %142 = icmp sle i32 %140, %141
  br i1 %142, label %143, label %162

143:                                              ; preds = %139
  %144 = load i32, i32* %3, align 4
  %145 = sext i32 %144 to i64
  %146 = getelementptr inbounds [50 x [20 x i8]], [50 x [20 x i8]]* %2, i64 0, i64 %145
  %147 = getelementptr inbounds [20 x i8], [20 x i8]* %146, i64 0, i64 0
  %148 = call i64 @strlen(i8* %147) #3
  %149 = load i32, i32* %8, align 4
  %150 = sext i32 %149 to i64
  %151 = icmp eq i64 %148, %150
  br i1 %151, label %152, label %158

152:                                              ; preds = %143
  %153 = load i32, i32* %3, align 4
  %154 = sext i32 %153 to i64
  %155 = getelementptr inbounds [50 x [20 x i8]], [50 x [20 x i8]]* %2, i64 0, i64 %154
  %156 = getelementptr inbounds [20 x i8], [20 x i8]* %155, i64 0, i64 0
  %157 = call i32 @puts(i8* %156)
  br label %162

158:                                              ; preds = %143
  br label %159

159:                                              ; preds = %158
  %160 = load i32, i32* %3, align 4
  %161 = add nsw i32 %160, 1
  store i32 %161, i32* %3, align 4
  br label %139

162:                                              ; preds = %152, %139
  ret void
}

declare dso_local i32 @gets(...) #1

; Function Attrs: nounwind readonly
declare dso_local i64 @strlen(i8*) #2

declare dso_local i32 @puts(i8*) #1


!llvm.module.flags = !{!0}
!llvm.ident = !{!1}

!0 = !{i32 1, !"wchar_size", i32 4}
!1 = !{!"clang version 10.0.0-4ubuntu1 "}
